target datalayout = "e-m:e-p270:32:32-p271:32:32-p272:64:64-i64:64-i128:128-f80:128-n8:16:32:64-S128"
target triple = "x86_64-pc-linux-gnu"

%struct._object = type { %union.anon, ptr }
%union.anon = type { i64 }
%struct.Py_complex = type { double, double }
%struct.PyComplexObject = type { %struct._object, %struct.Py_complex }

; Function Attrs: nounwind uwtable
define internal i64 @complex_hash(ptr noundef %0) #0 {
  %2 = alloca i64, align 8
  %3 = alloca ptr, align 8
  %4 = alloca i64, align 8
  %5 = alloca i64, align 8
  %6 = alloca i64, align 8
  %7 = alloca ptr, align 8
  %8 = alloca i32, align 4
  store ptr %0, ptr %3, align 8, !tbaa !16
  call void @llvm.lifetime.start.p0(i64 8, ptr %4) #9
  call void @llvm.lifetime.start.p0(i64 8, ptr %5) #9
  call void @llvm.lifetime.start.p0(i64 8, ptr %6) #9
  call void @llvm.lifetime.start.p0(i64 8, ptr %7) #9
  %9 = load ptr, ptr %3, align 8, !tbaa !16
  store ptr %9, ptr %7, align 8, !tbaa !14
  %10 = load ptr, ptr %3, align 8, !tbaa !16
  %11 = load ptr, ptr %7, align 8, !tbaa !14
  %12 = getelementptr inbounds nuw %struct.PyComplexObject, ptr %11, i32 0, i32 1
  %13 = getelementptr inbounds nuw %struct.Py_complex, ptr %12, i32 0, i32 0
  %14 = load double, ptr %13, align 8, !tbaa !20
  %15 = call i64 @_Py_HashDouble(ptr noundef %10, double noundef %14)
  store i64 %15, ptr %4, align 8, !tbaa !35
  %16 = load i64, ptr %4, align 8, !tbaa !35
  %17 = icmp eq i64 %16, -1
  br i1 %17, label %18, label %19

18:                                               ; preds = %1
  store i64 -1, ptr %2, align 8
  store i32 1, ptr %8, align 4
  br label %39

19:                                               ; preds = %1
  %20 = load ptr, ptr %3, align 8, !tbaa !16
  %21 = load ptr, ptr %7, align 8, !tbaa !14
  %22 = getelementptr inbounds nuw %struct.PyComplexObject, ptr %21, i32 0, i32 1
  %23 = getelementptr inbounds nuw %struct.Py_complex, ptr %22, i32 0, i32 1
  %24 = load double, ptr %23, align 8, !tbaa !33
  %25 = call i64 @_Py_HashDouble(ptr noundef %20, double noundef %24)
  store i64 %25, ptr %5, align 8, !tbaa !35
  %26 = load i64, ptr %5, align 8, !tbaa !35
  %27 = icmp eq i64 %26, -1
  br i1 %27, label %28, label %29

28:                                               ; preds = %19
  store i64 -1, ptr %2, align 8
  store i32 1, ptr %8, align 4
  br label %39

29:                                               ; preds = %19
  %30 = load i64, ptr %4, align 8, !tbaa !35
  %31 = load i64, ptr %5, align 8, !tbaa !35
  %32 = mul i64 1000003, %31
  %33 = add i64 %30, %32
  store i64 %33, ptr %6, align 8, !tbaa !35
  %34 = load i64, ptr %6, align 8, !tbaa !35
  %35 = icmp eq i64 %34, -1
  br i1 %35, label %36, label %37

36:                                               ; preds = %29
  store i64 -2, ptr %6, align 8, !tbaa !35
  br label %37

37:                                               ; preds = %36, %29
  %38 = load i64, ptr %6, align 8, !tbaa !35
  store i64 %38, ptr %2, align 8
  store i32 1, ptr %8, align 4
  br label %39

39:                                               ; preds = %37, %28, %18
  call void @llvm.lifetime.end.p0(i64 8, ptr %7) #9
  call void @llvm.lifetime.end.p0(i64 8, ptr %6) #9
  call void @llvm.lifetime.end.p0(i64 8, ptr %5) #9
  call void @llvm.lifetime.end.p0(i64 8, ptr %4) #9
  %40 = load i64, ptr %2, align 8
  ret i64 %40
}