; Function Attrs: nounwind uwtable
define internal i64 @complex_hash(ptr noundef %0) #9 {
  %2 = getelementptr inbounds nuw i8, ptr %0, i64 16
  %3 = load double, ptr %2, align 8, !tbaa !15
  %4 = tail call i64 @_Py_HashDouble(ptr noundef %0, double noundef %3) #16
  %5 = icmp eq i64 %4, -1
  br i1 %5, label %14, label %6

6:                                                ; preds = %1
  %7 = getelementptr inbounds nuw i8, ptr %0, i64 24
  %8 = load double, ptr %7, align 8, !tbaa !33
  %9 = tail call i64 @_Py_HashDouble(ptr noundef nonnull %0, double noundef %8) #16
  %10 = icmp eq i64 %9, -1
  br i1 %10, label %14, label %11

11:                                               ; preds = %6
  %12 = mul i64 %9, 1000003
  %13 = add i64 %12, %4
  %spec.store.select = tail call i64 @llvm.umin.i64(i64 %13, i64 -2)
  br label %14

14:                                               ; preds = %6, %1, %11
  %.0 = phi i64 [ %spec.store.select, %11 ], [ -1, %1 ], [ -1, %6 ]
  ret i64 %.0
}